target datalayout = "e-m:e-p270:32:32-p271:32:32-p272:64:64-i64:64-i128:128-f80:128-n8:16:32:64-S128"
target triple = "x86_64-pc-linux-gnu"

%class.mpff_manager = type <{ i32, i32, %class.svector, i32, i8, [3 x i8], %class.id_gen, [4 x %class.svector], %class.svector, %class.mpff, [8 x i8] }>
%class.id_gen = type { i32, %class.svector }
%class.svector = type { %class.vector }
%class.vector = type { ptr }
%class.mpff = type { i32, i32 }

; Function Attrs: mustprogress nounwind uwtable
define linkonce_odr hidden noundef ptr @_ZNK6vectorIjLb0EjE4dataEv(ptr noundef nonnull align 8 dereferenceable(8) %0) #5 comdat align 2 {
  %2 = alloca ptr, align 8
  store ptr %0, ptr %2, align 8, !tbaa !32
  %3 = load ptr, ptr %2, align 8
  %4 = getelementptr inbounds nuw %class.vector, ptr %3, i32 0, i32 0
  %5 = load ptr, ptr %4, align 8, !tbaa !35
  ret ptr %5
}

; Function Attrs: mustprogress uwtable
define linkonce_odr hidden noundef ptr @_ZNK12mpff_manager3sigERK4mpff(ptr noundef nonnull align 8 dereferenceable(89) %0, ptr noundef nonnull align 4 dereferenceable(8) %1) #4 comdat align 2 {
  %3 = alloca ptr, align 8
  %4 = alloca ptr, align 8
  store ptr %0, ptr %3, align 8, !tbaa !3
  store ptr %1, ptr %4, align 8, !tbaa !29
  %5 = load ptr, ptr %3, align 8
  %6 = getelementptr inbounds nuw %class.mpff_manager, ptr %5, i32 0, i32 2
  %7 = call noundef ptr @_ZNK6vectorIjLb0EjE4dataEv(ptr noundef nonnull align 8 dereferenceable(8) %6)
  %8 = load ptr, ptr %4, align 8, !tbaa !29
  %9 = load i32, ptr %8, align 4
  %10 = lshr i32 %9, 1
  %11 = getelementptr inbounds nuw %class.mpff_manager, ptr %5, i32 0, i32 0
  %12 = load i32, ptr %11, align 8, !tbaa !10
  %13 = mul i32 %10, %12
  %14 = zext i32 %13 to i64
  %15 = getelementptr inbounds nuw i32, ptr %7, i64 %14
  ret ptr %15
}

; Function Attrs: mustprogress uwtable
define hidden void @_ZN12mpff_manager19set_min_significandER4mpff(ptr noundef nonnull align 8 dereferenceable(89) %0, ptr noundef nonnull align 4 dereferenceable(8) %1) #4 align 2 {
  %3 = alloca ptr, align 8
  %4 = alloca ptr, align 8
  %5 = alloca ptr, align 8
  %6 = alloca i32, align 4
  store ptr %0, ptr %3, align 8, !tbaa !3
  store ptr %1, ptr %4, align 8, !tbaa !29
  %7 = load ptr, ptr %3, align 8
  call void @llvm.lifetime.start.p0(i64 8, ptr %5) #3
  %8 = load ptr, ptr %4, align 8, !tbaa !29
  %9 = call noundef ptr @_ZNK12mpff_manager3sigERK4mpff(ptr noundef nonnull align 8 dereferenceable(89) %7, ptr noundef nonnull align 4 dereferenceable(8) %8)
  store ptr %9, ptr %5, align 8, !tbaa !36
  %10 = load ptr, ptr %5, align 8, !tbaa !36
  %11 = getelementptr inbounds nuw %class.mpff_manager, ptr %7, i32 0, i32 0
  %12 = load i32, ptr %11, align 8, !tbaa !10
  %13 = sub i32 %12, 1
  %14 = zext i32 %13 to i64
  %15 = getelementptr inbounds nuw i32, ptr %10, i64 %14
  store i32 -2147483648, ptr %15, align 4, !tbaa !8
  call void @llvm.lifetime.start.p0(i64 4, ptr %6) #3
  store i32 0, ptr %6, align 4, !tbaa !8
  br label %16

16:                                               ; preds = %28, %2
  %17 = load i32, ptr %6, align 4, !tbaa !8
  %18 = getelementptr inbounds nuw %class.mpff_manager, ptr %7, i32 0, i32 0
  %19 = load i32, ptr %18, align 8, !tbaa !10
  %20 = sub i32 %19, 1
  %21 = icmp ult i32 %17, %20
  br i1 %21, label %23, label %22

22:                                               ; preds = %16
  call void @llvm.lifetime.end.p0(i64 4, ptr %6) #3
  br label %31

23:                                               ; preds = %16
  %24 = load ptr, ptr %5, align 8, !tbaa !36
  %25 = load i32, ptr %6, align 4, !tbaa !8
  %26 = zext i32 %25 to i64
  %27 = getelementptr inbounds nuw i32, ptr %24, i64 %26
  store i32 0, ptr %27, align 4, !tbaa !8
  br label %28

28:                                               ; preds = %23
  %29 = load i32, ptr %6, align 4, !tbaa !8
  %30 = add i32 %29, 1
  store i32 %30, ptr %6, align 4, !tbaa !8
  br label %16, !llvm.loop !83

31:                                               ; preds = %22
  call void @llvm.lifetime.end.p0(i64 8, ptr %5) #3
  ret void
}