; Function Attrs: mustprogress nofree norecurse nosync nounwind memory(write, argmem: readwrite, inaccessiblemem: none) uwtable
define hidden void @_ZN12mpff_manager19set_min_significandER4mpff(ptr noundef nonnull readonly align 8 captures(none) dereferenceable(89) %0, ptr noundef nonnull readonly align 4 captures(none) dereferenceable(8) %1) local_unnamed_addr #13 align 2 {
  %3 = getelementptr inbounds nuw i8, ptr %0, i64 8
  %4 = load ptr, ptr %3, align 8, !tbaa !3
  %5 = load i32, ptr %1, align 4
  %6 = lshr i32 %5, 1
  %7 = load i32, ptr %0, align 8, !tbaa !13
  %8 = mul i32 %6, %7
  %9 = zext i32 %8 to i64
  %10 = getelementptr inbounds nuw i32, ptr %4, i64 %9
  %11 = add i32 %7, -1
  %12 = zext i32 %11 to i64
  %13 = getelementptr inbounds nuw i32, ptr %10, i64 %12
  store i32 -2147483648, ptr %13, align 4, !tbaa !21
  %14 = load i32, ptr %0, align 8, !tbaa !13
  %.not = icmp eq i32 %14, 1
  br i1 %.not, label %._crit_edge, label %.lr.ph

._crit_edge:                                      ; preds = %.lr.ph, %2
  ret void

.lr.ph:                                           ; preds = %2, %.lr.ph
  %indvars.iv = phi i64 [ %indvars.iv.next, %.lr.ph ], [ 0, %2 ]
  %15 = getelementptr inbounds nuw i32, ptr %10, i64 %indvars.iv
  store i32 0, ptr %15, align 4, !tbaa !21
  %indvars.iv.next = add nuw nsw i64 %indvars.iv, 1
  %16 = load i32, ptr %0, align 8, !tbaa !13
  %17 = add i32 %16, -1
  %18 = zext i32 %17 to i64
  %19 = icmp samesign ult i64 %indvars.iv.next, %18
  br i1 %19, label %.lr.ph, label %._crit_edge, !llvm.loop !60
}